; Function Attrs: mustprogress uwtable
define void @_Z21dd_move_x_constraintsP12gmx_domdec_tPA3_KfN3gmx8ArrayRefINS4_11BasicVectorIfEEEES8_b(ptr noundef %0, ptr noundef %1, ptr %2, ptr readnone captures(none) %3, ptr %4, ptr readnone captures(none) %5, i1 noundef zeroext %6) local_unnamed_addr #0 {
  %8 = getelementptr inbounds nuw i8, ptr %0, i64 864
  %9 = load ptr, ptr %8, align 8, !tbaa !4
  %.not = icmp eq ptr %9, null
  br i1 %.not, label %11, label %10

10:                                               ; preds = %7
  tail call void @_Z16dd_move_x_specatPK12gmx_domdec_tP24gmx_domdec_specat_comm_tPA3_KfPN3gmx11BasicVectorIfEESA_b(ptr noundef nonnull %0, ptr noundef nonnull %9, ptr noundef %1, ptr noundef %2, ptr noundef %4, i1 noundef zeroext %6)
  tail call void @_Z24ddReopenBalanceRegionCpuPK12gmx_domdec_t(ptr noundef nonnull %0)
  br label %11

11:                                               ; preds = %10, %7
  ret void
}